; Function Attrs: nounwind uwtable
define internal noundef i32 @lj_cf_buffer_method_reset(ptr noundef %0) #0 {
  %2 = getelementptr inbounds nuw i8, ptr %0, i64 32
  %3 = load ptr, ptr %2, align 8, !tbaa !4
  %4 = getelementptr inbounds nuw i8, ptr %0, i64 40
  %5 = load ptr, ptr %4, align 8, !tbaa !14
  %6 = icmp ult ptr %3, %5
  br i1 %6, label %7, label %16

7:                                                ; preds = %1
  %8 = load i64, ptr %3, align 8, !tbaa !15
  %.mask.i = and i64 %8, -140737488355328
  %9 = icmp eq i64 %.mask.i, -1829587348619264
  br i1 %9, label %10, label %16

10:                                               ; preds = %7
  %11 = and i64 %8, 140737488355327
  %12 = inttoptr i64 %11 to ptr
  %13 = getelementptr inbounds nuw i8, ptr %12, i64 10
  %14 = load i8, ptr %13, align 2, !tbaa !15
  %15 = icmp eq i8 %14, 3
  br i1 %15, label %buffer_tobuf.exit, label %16

16:                                               ; preds = %10, %7, %1
  tail call void @lj_err_argtype(ptr noundef nonnull %0, i32 noundef 1, ptr noundef nonnull @.str.2) #7
  unreachable

buffer_tobuf.exit:                                ; preds = %10
  %17 = getelementptr inbounds nuw i8, ptr %12, i64 72
  %18 = load i64, ptr %17, align 8, !tbaa !16
  %19 = and i64 %18, 2
  %.not.i = icmp eq i64 %19, 0
  br i1 %.not.i, label %buffer_tobuf.exit.lj_bufx_reset.exit_crit_edge, label %20

buffer_tobuf.exit.lj_bufx_reset.exit_crit_edge:   ; preds = %buffer_tobuf.exit
  %.phi.trans.insert = getelementptr inbounds nuw i8, ptr %12, i64 64
  %.pre = load ptr, ptr %.phi.trans.insert, align 8, !tbaa !20
  br label %lj_bufx_reset.exit

20:                                               ; preds = %buffer_tobuf.exit
  %21 = and i64 %18, -3
  store i64 %21, ptr %17, align 8, !tbaa !16
  %22 = getelementptr inbounds nuw i8, ptr %12, i64 80
  store i64 0, ptr %22, align 8, !tbaa !15
  %23 = getelementptr inbounds nuw i8, ptr %12, i64 56
  tail call void @llvm.memset.p0.i64(ptr noundef nonnull align 8 dereferenceable(16) %23, i8 0, i64 16, i1 false)
  %.pre4 = load ptr, ptr %2, align 8, !tbaa !4
  br label %lj_bufx_reset.exit

lj_bufx_reset.exit:                               ; preds = %buffer_tobuf.exit.lj_bufx_reset.exit_crit_edge, %20
  %24 = phi ptr [ %3, %buffer_tobuf.exit.lj_bufx_reset.exit_crit_edge ], [ %.pre4, %20 ]
  %25 = phi ptr [ %.pre, %buffer_tobuf.exit.lj_bufx_reset.exit_crit_edge ], [ null, %20 ]
  %26 = getelementptr inbounds nuw i8, ptr %12, i64 48
  store ptr %25, ptr %26, align 8, !tbaa !34
  %27 = getelementptr inbounds nuw i8, ptr %12, i64 88
  store ptr %25, ptr %27, align 8, !tbaa !35
  %28 = getelementptr inbounds nuw i8, ptr %24, i64 8
  store ptr %28, ptr %4, align 8, !tbaa !14
  ret i32 1
}